target datalayout = "e-m:e-p270:32:32-p271:32:32-p272:64:64-i64:64-i128:128-f80:128-n8:16:32:64-S128"
target triple = "x86_64-pc-linux-gnu"

%"class.nix::ref" = type { %"class.std::shared_ptr" }
%"class.std::shared_ptr" = type { %"class.std::__shared_ptr" }
%"class.std::__shared_ptr" = type { ptr, %"class.std::__shared_count" }
%"class.std::__shared_count" = type { ptr }
%"class.nix::ref.35" = type { %"class.std::shared_ptr.36" }
%"class.std::shared_ptr.36" = type { %"class.std::__shared_ptr.37" }
%"class.std::__shared_ptr.37" = type { ptr, %"class.std::__shared_count" }

; Function Attrs: mustprogress uwtable
define void @_ZN3nix20makeCurlFileTransferEv(ptr dead_on_unwind noalias writable sret(%"class.nix::ref") align 8 %0) #5 {
  %2 = alloca ptr, align 8
  store ptr %0, ptr %2, align 8
  call void @_ZN3nix8make_refINS_16curlFileTransferEJEEENS_3refIT_EEDpOT0_(ptr dead_on_unwind writable sret(%"class.nix::ref") align 8 %0)
  ret void
}

; Function Attrs: mustprogress uwtable
define void @_ZN3nix16makeFileTransferEv(ptr dead_on_unwind noalias writable sret(%"class.nix::ref.35") align 8 %0) #5 personality ptr @__gxx_personality_v0 {
  %2 = alloca ptr, align 8
  %3 = alloca %"class.nix::ref", align 8
  %4 = alloca ptr, align 8
  %5 = alloca i32, align 4
  store ptr %0, ptr %2, align 8
  call void @_ZN3nix20makeCurlFileTransferEv(ptr dead_on_unwind writable sret(%"class.nix::ref") align 8 %3)
  invoke void @_ZNK3nix3refINS_16curlFileTransferEEcvNS0_IT_EEINS_12FileTransferEEEv(ptr dead_on_unwind writable sret(%"class.nix::ref.35") align 8 %0, ptr noundef nonnull align 8 dereferenceable(16) %3)
          to label %6 unwind label %7

6:                                                ; preds = %1
  call void @_ZN3nix3refINS_16curlFileTransferEED2Ev(ptr noundef nonnull align 8 dereferenceable(16) %3) #1
  ret void

7:                                                ; preds = %1
  %8 = landingpad { ptr, i32 }
          cleanup
  %9 = extractvalue { ptr, i32 } %8, 0
  store ptr %9, ptr %4, align 8
  %10 = extractvalue { ptr, i32 } %8, 1
  store i32 %10, ptr %5, align 4
  call void @_ZN3nix3refINS_16curlFileTransferEED2Ev(ptr noundef nonnull align 8 dereferenceable(16) %3) #1
  br label %11

11:                                               ; preds = %7
  %12 = load ptr, ptr %4, align 8
  %13 = load i32, ptr %5, align 4
  %14 = insertvalue { ptr, i32 } poison, ptr %12, 0
  %15 = insertvalue { ptr, i32 } %14, i32 %13, 1
  resume { ptr, i32 } %15
}